target datalayout = "e-m:e-p270:32:32-p271:32:32-p272:64:64-i64:64-i128:128-f80:128-n8:16:32:64-S128"
target triple = "x86_64-pc-linux-gnu"

; Function Attrs: nounwind uwtable
define i32 @ff_dovi_attach_side_data(ptr noundef %0, ptr noundef %1) #0 {
  %3 = alloca i32, align 4
  %4 = alloca ptr, align 8
  %5 = alloca ptr, align 8
  %6 = alloca ptr, align 8
  %7 = alloca ptr, align 8
  %8 = alloca ptr, align 8
  %9 = alloca i32, align 4
  %10 = alloca i32, align 4
  store ptr %0, ptr %4, align 8, !tbaa !4
  store ptr %1, ptr %5, align 8, !tbaa !43
  call void @llvm.lifetime.start.p0(i64 8, ptr %6) #9
  call void @llvm.lifetime.start.p0(i64 8, ptr %7) #9
  call void @llvm.lifetime.start.p0(i64 8, ptr %8) #9
  call void @llvm.lifetime.start.p0(i64 4, ptr %9) #9
  %11 = load ptr, ptr %4, align 8, !tbaa !4
  %12 = call i32 @ff_dovi_get_metadata(ptr noundef %11, ptr noundef %7)
  store i32 %12, ptr %9, align 4, !tbaa !31
  %13 = load i32, ptr %9, align 4, !tbaa !31
  %14 = icmp sle i32 %13, 0
  br i1 %14, label %15, label %17

15:                                               ; preds = %2
  %16 = load i32, ptr %9, align 4, !tbaa !31
  store i32 %16, ptr %3, align 4
  store i32 1, ptr %10, align 4
  br label %34

17:                                               ; preds = %2
  %18 = load ptr, ptr %7, align 8, !tbaa !23
  %19 = load i32, ptr %9, align 4, !tbaa !31
  %20 = sext i32 %19 to i64
  %21 = call ptr @av_buffer_create(ptr noundef %18, i64 noundef %20, ptr noundef null, ptr noundef null, i32 noundef 0)
  store ptr %21, ptr %8, align 8, !tbaa !45
  %22 = load ptr, ptr %8, align 8, !tbaa !45
  %23 = icmp ne ptr %22, null
  br i1 %23, label %26, label %24

24:                                               ; preds = %17
  %25 = load ptr, ptr %7, align 8, !tbaa !23
  call void @av_free(ptr noundef %25)
  store i32 -12, ptr %3, align 4
  store i32 1, ptr %10, align 4
  br label %34

26:                                               ; preds = %17
  %27 = load ptr, ptr %5, align 8, !tbaa !43
  %28 = load ptr, ptr %8, align 8, !tbaa !45
  %29 = call ptr @av_frame_new_side_data_from_buf(ptr noundef %27, i32 noundef 24, ptr noundef %28)
  store ptr %29, ptr %6, align 8, !tbaa !47
  %30 = load ptr, ptr %6, align 8, !tbaa !47
  %31 = icmp ne ptr %30, null
  br i1 %31, label %33, label %32

32:                                               ; preds = %26
  call void @av_buffer_unref(ptr noundef %8)
  store i32 -12, ptr %3, align 4
  store i32 1, ptr %10, align 4
  br label %34

33:                                               ; preds = %26
  store i32 0, ptr %3, align 4
  store i32 1, ptr %10, align 4
  br label %34

34:                                               ; preds = %33, %32, %24, %15
  call void @llvm.lifetime.end.p0(i64 4, ptr %9) #9
  call void @llvm.lifetime.end.p0(i64 8, ptr %8) #9
  call void @llvm.lifetime.end.p0(i64 8, ptr %7) #9
  call void @llvm.lifetime.end.p0(i64 8, ptr %6) #9
  %35 = load i32, ptr %3, align 4
  ret i32 %35
}