; Function Attrs: nounwind uwtable
define range(i32 -2147483648, 1) i32 @ff_dovi_attach_side_data(ptr noundef readonly captures(none) %0, ptr noundef %1) local_unnamed_addr #0 {
  %3 = alloca ptr, align 8
  %4 = alloca ptr, align 8
  call void @llvm.lifetime.start.p0(i64 8, ptr nonnull %3) #8
  call void @llvm.lifetime.start.p0(i64 8, ptr nonnull %4) #8
  %5 = call i32 @ff_dovi_get_metadata(ptr noundef %0, ptr noundef nonnull %3)
  %6 = icmp slt i32 %5, 1
  br i1 %6, label %15, label %7

7:                                                ; preds = %2
  %8 = load ptr, ptr %3, align 8, !tbaa !33
  %9 = zext nneg i32 %5 to i64
  %10 = tail call ptr @av_buffer_create(ptr noundef %8, i64 noundef %9, ptr noundef null, ptr noundef null, i32 noundef 0) #8
  store ptr %10, ptr %4, align 8, !tbaa !36
  %.not = icmp eq ptr %10, null
  br i1 %.not, label %11, label %12

11:                                               ; preds = %7
  tail call void @av_free(ptr noundef %8) #8
  br label %15

12:                                               ; preds = %7
  %13 = tail call ptr @av_frame_new_side_data_from_buf(ptr noundef %1, i32 noundef 24, ptr noundef nonnull %10) #8
  %.not8 = icmp eq ptr %13, null
  br i1 %.not8, label %14, label %15

14:                                               ; preds = %12
  call void @av_buffer_unref(ptr noundef nonnull %4) #8
  br label %15

15:                                               ; preds = %12, %2, %14, %11
  %.0 = phi i32 [ -12, %14 ], [ -12, %11 ], [ %5, %2 ], [ 0, %12 ]
  call void @llvm.lifetime.end.p0(i64 8, ptr nonnull %4) #8
  call void @llvm.lifetime.end.p0(i64 8, ptr nonnull %3) #8
  ret i32 %.0
}